; ModuleID = 'source-C-CXX/19/800.cpp'
source_filename = "source-C-CXX/19/800.cpp"
target datalayout = "e-m:e-p270:32:32-p271:32:32-p272:64:64-i64:64-f80:128-n8:16:32:64-S128"
target triple = "x86_64-pc-linux-gnu"

%"class.std::ios_base::Init" = type { i8 }
%"class.std::basic_istream" = type { i32 (...)**, i64, %"class.std::basic_ios" }
%"class.std::basic_ios" = type { %"class.std::ios_base", %"class.std::basic_ostream"*, i8, i8, %"class.std::basic_streambuf"*, %"class.std::ctype"*, %"class.std::num_put"*, %"class.std::num_get"* }
%"class.std::ios_base" = type { i32 (...)**, i64, i64, i32, i32, i32, %"struct.std::ios_base::_Callback_list"*, %"struct.std::ios_base::_Words", [8 x %"struct.std::ios_base::_Words"], i32, %"struct.std::ios_base::_Words"*, %"class.std::locale" }
%"struct.std::ios_base::_Callback_list" = type { %"struct.std::ios_base::_Callback_list"*, void (i32, %"class.std::ios_base"*, i32)*, i32, i32 }
%"struct.std::ios_base::_Words" = type { i8*, i64 }
%"class.std::locale" = type { %"class.std::locale::_Impl"* }
%"class.std::locale::_Impl" = type { i32, %"class.std::locale::facet"**, i64, %"class.std::locale::facet"**, i8** }
%"class.std::locale::facet" = type <{ i32 (...)**, i32, [4 x i8] }>
%"class.std::basic_ostream" = type { i32 (...)**, %"class.std::basic_ios" }
%"class.std::basic_streambuf" = type { i32 (...)**, i8*, i8*, i8*, i8*, i8*, i8*, %"class.std::locale" }
%"class.std::ctype" = type <{ %"class.std::locale::facet.base", [4 x i8], %struct.__locale_struct*, i8, [7 x i8], i32*, i32*, i16*, i8, [256 x i8], [256 x i8], i8, [6 x i8] }>
%"class.std::locale::facet.base" = type <{ i32 (...)**, i32 }>
%struct.__locale_struct = type { [13 x %struct.__locale_data*], i16*, i32*, i32*, [13 x i8*] }
%struct.__locale_data = type opaque
%"class.std::num_put" = type { %"class.std::locale::facet.base", [4 x i8] }
%"class.std::num_get" = type { %"class.std::locale::facet.base", [4 x i8] }

@_ZStL8__ioinit = internal global %"class.std::ios_base::Init" zeroinitializer, align 1
@__dso_handle = external hidden global i8
@_ZSt3cin = external global %"class.std::basic_istream", align 8
@_ZSt4cout = external global %"class.std::basic_ostream", align 8
@llvm.global_ctors = appending global [1 x { i32, void ()*, i8* }] [{ i32, void ()*, i8* } { i32 65535, void ()* @_GLOBAL__sub_I_800.cpp, i8* null }]

declare void @_ZNSt8ios_base4InitC1Ev(%"class.std::ios_base::Init"* nonnull align 1 dereferenceable(1)) unnamed_addr #0

; Function Attrs: nounwind
declare void @_ZNSt8ios_base4InitD1Ev(%"class.std::ios_base::Init"* nonnull align 1 dereferenceable(1)) unnamed_addr #1

; Function Attrs: nofree nounwind
declare i32 @__cxa_atexit(void (i8*)*, i8*, i8*) local_unnamed_addr #2

; Function Attrs: mustprogress norecurse sspstrong uwtable
define dso_local i32 @main() local_unnamed_addr #3 {
  %1 = alloca i8, align 1
  %2 = alloca i8, align 1
  %3 = alloca [10 x i8], align 1
  %4 = alloca [4 x i8], align 1
  %5 = getelementptr inbounds [10 x i8], [10 x i8]* %3, i64 0, i64 0
  call void @llvm.lifetime.start.p0i8(i64 10, i8* nonnull %5) #8
  %6 = getelementptr inbounds [4 x i8], [4 x i8]* %4, i64 0, i64 0
  call void @_ZSt17__istream_extractRSiPcl(%"class.std::basic_istream"* nonnull align 8 dereferenceable(16) @_ZSt3cin, i8* nonnull %5, i64 10)
  %7 = load i8*, i8** bitcast (%"class.std::basic_istream"* @_ZSt3cin to i8**), align 8, !tbaa !5
  %8 = getelementptr i8, i8* %7, i64 -24
  %9 = bitcast i8* %8 to i64*
  %10 = load i64, i64* %9, align 8
  %11 = add nsw i64 %10, 32
  %12 = getelementptr inbounds i8, i8* bitcast (%"class.std::basic_istream"* @_ZSt3cin to i8*), i64 %11
  %13 = bitcast i8* %12 to i32*
  %14 = load i32, i32* %13, align 8, !tbaa !8
  %15 = and i32 %14, 5
  %16 = icmp eq i32 %15, 0
  br i1 %16, label %17, label %163

17:                                               ; preds = %0, %149
  call void @llvm.lifetime.start.p0i8(i64 4, i8* nonnull %6) #8
  call void @_ZSt17__istream_extractRSiPcl(%"class.std::basic_istream"* nonnull align 8 dereferenceable(16) @_ZSt3cin, i8* nonnull %6, i64 4)
  %18 = load i8, i8* %5, align 1, !tbaa !18
  %19 = call i64 @strlen(i8* noundef nonnull %5) #9
  %20 = trunc i64 %19 to i32
  %21 = icmp sgt i32 %20, 0
  br i1 %21, label %22, label %59

22:                                               ; preds = %17
  %23 = and i64 %19, 4294967295
  %24 = icmp eq i64 %23, 1
  br i1 %24, label %56, label %25, !llvm.loop !19

25:                                               ; preds = %22
  %26 = add nsw i64 %23, -1
  %27 = add nsw i64 %23, -2
  %28 = and i64 %26, 3
  %29 = icmp ult i64 %27, 3
  br i1 %29, label %32, label %30

30:                                               ; preds = %25
  %31 = and i64 %26, -4
  br label %65

32:                                               ; preds = %65, %25
  %33 = phi i32 [ undef, %25 ], [ %98, %65 ]
  %34 = phi i64 [ 1, %25 ], [ %99, %65 ]
  %35 = phi i32 [ 0, %25 ], [ %98, %65 ]
  %36 = phi i1 [ false, %25 ], [ %96, %65 ]
  %37 = phi i8 [ %18, %25 ], [ %93, %65 ]
  %38 = phi i8 [ %18, %25 ], [ %95, %65 ]
  %39 = icmp eq i64 %28, 0
  br i1 %39, label %56, label %40

40:                                               ; preds = %32, %40
  %41 = phi i64 [ %53, %40 ], [ %34, %32 ]
  %42 = phi i32 [ %52, %40 ], [ %35, %32 ]
  %43 = phi i1 [ %50, %40 ], [ %36, %32 ]
  %44 = phi i8 [ %47, %40 ], [ %37, %32 ]
  %45 = phi i8 [ %49, %40 ], [ %38, %32 ]
  %46 = phi i64 [ %54, %40 ], [ %28, %32 ]
  %47 = select i1 %43, i8 %45, i8 %44
  %48 = getelementptr inbounds [10 x i8], [10 x i8]* %3, i64 0, i64 %41
  %49 = load i8, i8* %48, align 1, !tbaa !18
  %50 = icmp sgt i8 %49, %47
  %51 = trunc i64 %41 to i32
  %52 = select i1 %50, i32 %51, i32 %42
  %53 = add nuw nsw i64 %41, 1
  %54 = add i64 %46, -1
  %55 = icmp eq i64 %54, 0
  br i1 %55, label %56, label %40, !llvm.loop !21

56:                                               ; preds = %32, %40, %22
  %57 = phi i32 [ 0, %22 ], [ %33, %32 ], [ %52, %40 ]
  %58 = icmp slt i32 %57, 0
  br i1 %58, label %109, label %59

59:                                               ; preds = %17, %56
  %60 = phi i32 [ %57, %56 ], [ 0, %17 ]
  %61 = add nuw i32 %60, 1
  %62 = zext i32 %61 to i64
  call void @llvm.lifetime.start.p0i8(i64 1, i8* nonnull %2)
  store i8 %18, i8* %2, align 1, !tbaa !18
  %63 = call nonnull align 8 dereferenceable(8) %"class.std::basic_ostream"* @_ZSt16__ostream_insertIcSt11char_traitsIcEERSt13basic_ostreamIT_T0_ES6_PKS3_l(%"class.std::basic_ostream"* nonnull align 8 dereferenceable(8) @_ZSt4cout, i8* nonnull %2, i64 1)
  call void @llvm.lifetime.end.p0i8(i64 1, i8* nonnull %2)
  %64 = icmp eq i32 %60, 0
  br i1 %64, label %109, label %102, !llvm.loop !23

65:                                               ; preds = %65, %30
  %66 = phi i64 [ 1, %30 ], [ %99, %65 ]
  %67 = phi i32 [ 0, %30 ], [ %98, %65 ]
  %68 = phi i1 [ false, %30 ], [ %96, %65 ]
  %69 = phi i8 [ %18, %30 ], [ %93, %65 ]
  %70 = phi i8 [ %18, %30 ], [ %95, %65 ]
  %71 = phi i64 [ %31, %30 ], [ %100, %65 ]
  %72 = select i1 %68, i8 %70, i8 %69
  %73 = getelementptr inbounds [10 x i8], [10 x i8]* %3, i64 0, i64 %66
  %74 = load i8, i8* %73, align 1, !tbaa !18
  %75 = icmp sgt i8 %74, %72
  %76 = trunc i64 %66 to i32
  %77 = select i1 %75, i32 %76, i32 %67
  %78 = add nuw nsw i64 %66, 1
  %79 = select i1 %75, i8 %74, i8 %72
  %80 = getelementptr inbounds [10 x i8], [10 x i8]* %3, i64 0, i64 %78
  %81 = load i8, i8* %80, align 1, !tbaa !18
  %82 = icmp sgt i8 %81, %79
  %83 = trunc i64 %78 to i32
  %84 = select i1 %82, i32 %83, i32 %77
  %85 = add nuw nsw i64 %66, 2
  %86 = select i1 %82, i8 %81, i8 %79
  %87 = getelementptr inbounds [10 x i8], [10 x i8]* %3, i64 0, i64 %85
  %88 = load i8, i8* %87, align 1, !tbaa !18
  %89 = icmp sgt i8 %88, %86
  %90 = trunc i64 %85 to i32
  %91 = select i1 %89, i32 %90, i32 %84
  %92 = add nuw nsw i64 %66, 3
  %93 = select i1 %89, i8 %88, i8 %86
  %94 = getelementptr inbounds [10 x i8], [10 x i8]* %3, i64 0, i64 %92
  %95 = load i8, i8* %94, align 1, !tbaa !18
  %96 = icmp sgt i8 %95, %93
  %97 = trunc i64 %92 to i32
  %98 = select i1 %96, i32 %97, i32 %91
  %99 = add nuw nsw i64 %66, 4
  %100 = add i64 %71, -4
  %101 = icmp eq i64 %100, 0
  br i1 %101, label %32, label %65, !llvm.loop !19

102:                                              ; preds = %59, %102
  %103 = phi i64 [ %107, %102 ], [ 1, %59 ]
  %104 = getelementptr inbounds [10 x i8], [10 x i8]* %3, i64 0, i64 %103
  %105 = load i8, i8* %104, align 1, !tbaa !18
  call void @llvm.lifetime.start.p0i8(i64 1, i8* nonnull %2)
  store i8 %105, i8* %2, align 1, !tbaa !18
  %106 = call nonnull align 8 dereferenceable(8) %"class.std::basic_ostream"* @_ZSt16__ostream_insertIcSt11char_traitsIcEERSt13basic_ostreamIT_T0_ES6_PKS3_l(%"class.std::basic_ostream"* nonnull align 8 dereferenceable(8) @_ZSt4cout, i8* nonnull %2, i64 1)
  call void @llvm.lifetime.end.p0i8(i64 1, i8* nonnull %2)
  %107 = add nuw nsw i64 %103, 1
  %108 = icmp eq i64 %107, %62
  br i1 %108, label %109, label %102, !llvm.loop !23

109:                                              ; preds = %102, %59, %56
  %110 = phi i32 [ 0, %56 ], [ %61, %59 ], [ %61, %102 ]
  %111 = call i64 @strlen(i8* noundef nonnull dereferenceable(1) %6) #8
  %112 = call nonnull align 8 dereferenceable(8) %"class.std::basic_ostream"* @_ZSt16__ostream_insertIcSt11char_traitsIcEERSt13basic_ostreamIT_T0_ES6_PKS3_l(%"class.std::basic_ostream"* nonnull align 8 dereferenceable(8) @_ZSt4cout, i8* nonnull %6, i64 %111)
  %113 = icmp slt i32 %110, %20
  br i1 %113, label %114, label %125

114:                                              ; preds = %109
  %115 = zext i32 %110 to i64
  br label %116

116:                                              ; preds = %114, %116
  %117 = phi i64 [ %115, %114 ], [ %122, %116 ]
  %118 = phi i32 [ %110, %114 ], [ %123, %116 ]
  %119 = getelementptr inbounds [10 x i8], [10 x i8]* %3, i64 0, i64 %117
  %120 = load i8, i8* %119, align 1, !tbaa !18
  call void @llvm.lifetime.start.p0i8(i64 1, i8* nonnull %1)
  store i8 %120, i8* %1, align 1, !tbaa !18
  %121 = call nonnull align 8 dereferenceable(8) %"class.std::basic_ostream"* @_ZSt16__ostream_insertIcSt11char_traitsIcEERSt13basic_ostreamIT_T0_ES6_PKS3_l(%"class.std::basic_ostream"* nonnull align 8 dereferenceable(8) @_ZSt4cout, i8* nonnull %1, i64 1)
  call void @llvm.lifetime.end.p0i8(i64 1, i8* nonnull %1)
  %122 = add nuw nsw i64 %117, 1
  %123 = add nsw i32 %118, 1
  %124 = icmp eq i32 %123, %20
  br i1 %124, label %125, label %116, !llvm.loop !24

125:                                              ; preds = %116, %109
  %126 = load i8*, i8** bitcast (%"class.std::basic_ostream"* @_ZSt4cout to i8**), align 8, !tbaa !5
  %127 = getelementptr i8, i8* %126, i64 -24
  %128 = bitcast i8* %127 to i64*
  %129 = load i64, i64* %128, align 8
  %130 = add nsw i64 %129, 240
  %131 = getelementptr inbounds i8, i8* bitcast (%"class.std::basic_ostream"* @_ZSt4cout to i8*), i64 %130
  %132 = bitcast i8* %131 to %"class.std::ctype"**
  %133 = load %"class.std::ctype"*, %"class.std::ctype"** %132, align 8, !tbaa !25
  %134 = icmp eq %"class.std::ctype"* %133, null
  br i1 %134, label %135, label %136

135:                                              ; preds = %125
  call void @_ZSt16__throw_bad_castv() #10
  unreachable

136:                                              ; preds = %125
  %137 = getelementptr inbounds %"class.std::ctype", %"class.std::ctype"* %133, i64 0, i32 8
  %138 = load i8, i8* %137, align 8, !tbaa !28
  %139 = icmp eq i8 %138, 0
  br i1 %139, label %143, label %140

140:                                              ; preds = %136
  %141 = getelementptr inbounds %"class.std::ctype", %"class.std::ctype"* %133, i64 0, i32 9, i64 10
  %142 = load i8, i8* %141, align 1, !tbaa !18
  br label %149

143:                                              ; preds = %136
  call void @_ZNKSt5ctypeIcE13_M_widen_initEv(%"class.std::ctype"* nonnull align 8 dereferenceable(570) %133)
  %144 = bitcast %"class.std::ctype"* %133 to i8 (%"class.std::ctype"*, i8)***
  %145 = load i8 (%"class.std::ctype"*, i8)**, i8 (%"class.std::ctype"*, i8)*** %144, align 8, !tbaa !5
  %146 = getelementptr inbounds i8 (%"class.std::ctype"*, i8)*, i8 (%"class.std::ctype"*, i8)** %145, i64 6
  %147 = load i8 (%"class.std::ctype"*, i8)*, i8 (%"class.std::ctype"*, i8)** %146, align 8
  %148 = call signext i8 %147(%"class.std::ctype"* nonnull align 8 dereferenceable(570) %133, i8 signext 10)
  br label %149

149:                                              ; preds = %140, %143
  %150 = phi i8 [ %142, %140 ], [ %148, %143 ]
  %151 = call nonnull align 8 dereferenceable(8) %"class.std::basic_ostream"* @_ZNSo3putEc(%"class.std::basic_ostream"* nonnull align 8 dereferenceable(8) @_ZSt4cout, i8 signext %150)
  %152 = call nonnull align 8 dereferenceable(8) %"class.std::basic_ostream"* @_ZNSo5flushEv(%"class.std::basic_ostream"* nonnull align 8 dereferenceable(8) %151)
  call void @llvm.lifetime.end.p0i8(i64 4, i8* nonnull %6) #8
  call void @_ZSt17__istream_extractRSiPcl(%"class.std::basic_istream"* nonnull align 8 dereferenceable(16) @_ZSt3cin, i8* nonnull %5, i64 10)
  %153 = load i8*, i8** bitcast (%"class.std::basic_istream"* @_ZSt3cin to i8**), align 8, !tbaa !5
  %154 = getelementptr i8, i8* %153, i64 -24
  %155 = bitcast i8* %154 to i64*
  %156 = load i64, i64* %155, align 8
  %157 = add nsw i64 %156, 32
  %158 = getelementptr inbounds i8, i8* bitcast (%"class.std::basic_istream"* @_ZSt3cin to i8*), i64 %157
  %159 = bitcast i8* %158 to i32*
  %160 = load i32, i32* %159, align 8, !tbaa !8
  %161 = and i32 %160, 5
  %162 = icmp eq i32 %161, 0
  br i1 %162, label %17, label %163, !llvm.loop !30

163:                                              ; preds = %149, %0
  call void @llvm.lifetime.end.p0i8(i64 10, i8* nonnull %5) #8
  ret i32 0
}

; Function Attrs: argmemonly mustprogress nofree nosync nounwind willreturn
declare void @llvm.lifetime.start.p0i8(i64 immarg, i8* nocapture) #4

; Function Attrs: argmemonly mustprogress nofree nounwind readonly willreturn
declare i64 @strlen(i8* nocapture) local_unnamed_addr #5

; Function Attrs: argmemonly mustprogress nofree nosync nounwind willreturn
declare void @llvm.lifetime.end.p0i8(i64 immarg, i8* nocapture) #4

declare void @_ZSt17__istream_extractRSiPcl(%"class.std::basic_istream"* nonnull align 8 dereferenceable(16), i8*, i64) local_unnamed_addr #0

declare nonnull align 8 dereferenceable(8) %"class.std::basic_ostream"* @_ZSt16__ostream_insertIcSt11char_traitsIcEERSt13basic_ostreamIT_T0_ES6_PKS3_l(%"class.std::basic_ostream"* nonnull align 8 dereferenceable(8), i8*, i64) local_unnamed_addr #0

declare nonnull align 8 dereferenceable(8) %"class.std::basic_ostream"* @_ZNSo3putEc(%"class.std::basic_ostream"* nonnull align 8 dereferenceable(8), i8 signext) local_unnamed_addr #0

declare nonnull align 8 dereferenceable(8) %"class.std::basic_ostream"* @_ZNSo5flushEv(%"class.std::basic_ostream"* nonnull align 8 dereferenceable(8)) local_unnamed_addr #0

; Function Attrs: noreturn
declare void @_ZSt16__throw_bad_castv() local_unnamed_addr #6

declare void @_ZNKSt5ctypeIcE13_M_widen_initEv(%"class.std::ctype"* nonnull align 8 dereferenceable(570)) local_unnamed_addr #0

; Function Attrs: sspstrong uwtable
define internal void @_GLOBAL__sub_I_800.cpp() #7 section ".text.startup" {
  tail call void @_ZNSt8ios_base4InitC1Ev(%"class.std::ios_base::Init"* nonnull align 1 dereferenceable(1) @_ZStL8__ioinit)
  %1 = tail call i32 @__cxa_atexit(void (i8*)* bitcast (void (%"class.std::ios_base::Init"*)* @_ZNSt8ios_base4InitD1Ev to void (i8*)*), i8* getelementptr inbounds (%"class.std::ios_base::Init", %"class.std::ios_base::Init"* @_ZStL8__ioinit, i64 0, i32 0), i8* nonnull @__dso_handle) #8
  ret void
}


!llvm.module.flags = !{!0, !1, !2, !3}
!llvm.ident = !{!4}

!0 = !{i32 1, !"wchar_size", i32 4}
!1 = !{i32 7, !"PIC Level", i32 2}
!2 = !{i32 7, !"PIE Level", i32 2}
!3 = !{i32 7, !"uwtable", i32 1}
!4 = !{!"clang version 13.0.0"}
!5 = !{!6, !6, i64 0}
!6 = !{!"vtable pointer", !7, i64 0}
!7 = !{!"Simple C++ TBAA"}
!8 = !{!9, !13, i64 32}
!9 = !{!"_ZTSSt8ios_base", !10, i64 8, !10, i64 16, !12, i64 24, !13, i64 28, !13, i64 32, !14, i64 40, !15, i64 48, !11, i64 64, !16, i64 192, !14, i64 200, !17, i64 208}
!10 = !{!"long", !11, i64 0}
!11 = !{!"omnipotent char", !7, i64 0}
!12 = !{!"_ZTSSt13_Ios_Fmtflags", !11, i64 0}
!13 = !{!"_ZTSSt12_Ios_Iostate", !11, i64 0}
!14 = !{!"any pointer", !11, i64 0}
!15 = !{!"_ZTSNSt8ios_base6_WordsE", !14, i64 0, !10, i64 8}
!16 = !{!"int", !11, i64 0}
!17 = !{!"_ZTSSt6locale", !14, i64 0}
!18 = !{!11, !11, i64 0}
!19 = distinct !{!19, !20}
!20 = !{!"llvm.loop.mustprogress"}
!21 = distinct !{!21, !22}
!22 = !{!"llvm.loop.unroll.disable"}
!23 = distinct !{!23, !20}
!24 = distinct !{!24, !20}
!25 = !{!26, !14, i64 240}
!26 = !{!"_ZTSSt9basic_iosIcSt11char_traitsIcEE", !14, i64 216, !11, i64 224, !27, i64 225, !14, i64 232, !14, i64 240, !14, i64 248, !14, i64 256}
!27 = !{!"bool", !11, i64 0}
!28 = !{!29, !11, i64 56}
!29 = !{!"_ZTSSt5ctypeIcE", !14, i64 16, !27, i64 24, !14, i64 32, !14, i64 40, !14, i64 48, !11, i64 56, !11, i64 57, !11, i64 313, !11, i64 569}
!30 = distinct !{!30, !20}
